target datalayout = "e-m:e-p270:32:32-p271:32:32-p272:64:64-i64:64-i128:128-f80:128-n8:16:32:64-S128"
target triple = "x86_64-pc-linux-gnu"

%struct.repository_format = type { i32, i32, ptr, i32, i32, i32, i32, i32, i32, i32, ptr, %struct.string_list, %struct.string_list }
%struct.string_list = type { ptr, i64, i64, i8, ptr }

; Function Attrs: nounwind uwtable
define internal void @init_repository_format(ptr noundef %0) #0 {
  %2 = alloca ptr, align 8
  %3 = alloca %struct.repository_format, align 8
  store ptr %0, ptr %2, align 8, !tbaa !45
  call void @llvm.lifetime.start.p0(i64 136, ptr %3) #13
  call void @llvm.memset.p0.i64(ptr align 8 %3, i8 0, i64 136, i1 false)
  %4 = getelementptr inbounds { i32, i32, ptr, i32, i32, i32, i32, i32, i32, i32, [4 x i8], ptr, { ptr, i64, i64, i8, [7 x i8], ptr }, { ptr, i64, i64, i8, [7 x i8], ptr } }, ptr %3, i32 0, i32 0
  store i32 -1, ptr %4, align 8
  %5 = getelementptr inbounds { i32, i32, ptr, i32, i32, i32, i32, i32, i32, i32, [4 x i8], ptr, { ptr, i64, i64, i8, [7 x i8], ptr }, { ptr, i64, i64, i8, [7 x i8], ptr } }, ptr %3, i32 0, i32 5
  store i32 -1, ptr %5, align 8
  %6 = getelementptr inbounds { i32, i32, ptr, i32, i32, i32, i32, i32, i32, i32, [4 x i8], ptr, { ptr, i64, i64, i8, [7 x i8], ptr }, { ptr, i64, i64, i8, [7 x i8], ptr } }, ptr %3, i32 0, i32 6
  store i32 1, ptr %6, align 4
  %7 = getelementptr inbounds { i32, i32, ptr, i32, i32, i32, i32, i32, i32, i32, [4 x i8], ptr, { ptr, i64, i64, i8, [7 x i8], ptr }, { ptr, i64, i64, i8, [7 x i8], ptr } }, ptr %3, i32 0, i32 8
  store i32 1, ptr %7, align 4
  %8 = getelementptr inbounds { i32, i32, ptr, i32, i32, i32, i32, i32, i32, i32, [4 x i8], ptr, { ptr, i64, i64, i8, [7 x i8], ptr }, { ptr, i64, i64, i8, [7 x i8], ptr } }, ptr %3, i32 0, i32 12
  %9 = getelementptr inbounds { ptr, i64, i64, i8, [7 x i8], ptr }, ptr %8, i32 0, i32 3
  store i8 1, ptr %9, align 8
  %10 = getelementptr inbounds { i32, i32, ptr, i32, i32, i32, i32, i32, i32, i32, [4 x i8], ptr, { ptr, i64, i64, i8, [7 x i8], ptr }, { ptr, i64, i64, i8, [7 x i8], ptr } }, ptr %3, i32 0, i32 13
  %11 = getelementptr inbounds { ptr, i64, i64, i8, [7 x i8], ptr }, ptr %10, i32 0, i32 3
  store i8 1, ptr %11, align 8
  %12 = load ptr, ptr %2, align 8, !tbaa !45
  call void @llvm.memcpy.p0.p0.i64(ptr align 8 %12, ptr align 8 %3, i64 136, i1 false)
  call void @llvm.lifetime.end.p0(i64 136, ptr %3) #13
  ret void
}

; Function Attrs: nounwind uwtable
define dso_local void @clear_repository_format(ptr noundef %0) #0 {
  %2 = alloca ptr, align 8
  store ptr %0, ptr %2, align 8, !tbaa !45
  %3 = load ptr, ptr %2, align 8, !tbaa !45
  %4 = getelementptr inbounds nuw %struct.repository_format, ptr %3, i32 0, i32 11
  call void @string_list_clear(ptr noundef %4, i32 noundef 0)
  %5 = load ptr, ptr %2, align 8, !tbaa !45
  %6 = getelementptr inbounds nuw %struct.repository_format, ptr %5, i32 0, i32 12
  call void @string_list_clear(ptr noundef %6, i32 noundef 0)
  %7 = load ptr, ptr %2, align 8, !tbaa !45
  %8 = getelementptr inbounds nuw %struct.repository_format, ptr %7, i32 0, i32 10
  %9 = load ptr, ptr %8, align 8, !tbaa !51
  call void @free(ptr noundef %9) #13
  %10 = load ptr, ptr %2, align 8, !tbaa !45
  %11 = getelementptr inbounds nuw %struct.repository_format, ptr %10, i32 0, i32 2
  %12 = load ptr, ptr %11, align 8, !tbaa !52
  call void @free(ptr noundef %12) #13
  %13 = load ptr, ptr %2, align 8, !tbaa !45
  call void @init_repository_format(ptr noundef %13)
  ret void
}

; Function Attrs: nounwind uwtable
define dso_local i32 @read_repository_format(ptr noundef %0, ptr noundef %1) #0 {
  %3 = alloca ptr, align 8
  %4 = alloca ptr, align 8
  store ptr %0, ptr %3, align 8, !tbaa !45
  store ptr %1, ptr %4, align 8, !tbaa !4
  %5 = load ptr, ptr %3, align 8, !tbaa !45
  call void @clear_repository_format(ptr noundef %5)
  %6 = load ptr, ptr %4, align 8, !tbaa !4
  %7 = load ptr, ptr %3, align 8, !tbaa !45
  %8 = call i32 @git_config_from_file(ptr noundef @check_repo_format, ptr noundef %6, ptr noundef %7)
  %9 = load ptr, ptr %3, align 8, !tbaa !45
  %10 = getelementptr inbounds nuw %struct.repository_format, ptr %9, i32 0, i32 0
  %11 = load i32, ptr %10, align 8, !tbaa !37
  %12 = icmp eq i32 %11, -1
  br i1 %12, label %13, label %15

13:                                               ; preds = %2
  %14 = load ptr, ptr %3, align 8, !tbaa !45
  call void @clear_repository_format(ptr noundef %14)
  br label %15

15:                                               ; preds = %13, %2
  %16 = load ptr, ptr %3, align 8, !tbaa !45
  %17 = getelementptr inbounds nuw %struct.repository_format, ptr %16, i32 0, i32 0
  %18 = load i32, ptr %17, align 8, !tbaa !37
  ret i32 %18
}