; Function Attrs: nounwind uwtable
define dso_local i32 @read_repository_format(ptr noundef %0, ptr noundef %1) local_unnamed_addr #0 {
  %3 = getelementptr inbounds nuw i8, ptr %0, i64 56
  tail call void @string_list_clear(ptr noundef nonnull %3, i32 noundef 0) #25
  %4 = getelementptr inbounds nuw i8, ptr %0, i64 96
  tail call void @string_list_clear(ptr noundef nonnull %4, i32 noundef 0) #25
  %5 = getelementptr inbounds nuw i8, ptr %0, i64 48
  %6 = load ptr, ptr %5, align 8, !tbaa !36
  tail call void @free(ptr noundef %6) #25
  %7 = getelementptr inbounds nuw i8, ptr %0, i64 8
  %8 = load ptr, ptr %7, align 8, !tbaa !37
  tail call void @free(ptr noundef %8) #25
  store i32 -1, ptr %0, align 8
  %.sroa.5.0..sroa_idx.i.i = getelementptr inbounds nuw i8, ptr %0, i64 4
  tail call void @llvm.memset.p0.i64(ptr noundef nonnull align 4 dereferenceable(20) %.sroa.5.0..sroa_idx.i.i, i8 0, i64 20, i1 false)
  %.sroa.51.0..sroa_idx.i.i = getelementptr inbounds nuw i8, ptr %0, i64 24
  store i32 -1, ptr %.sroa.51.0..sroa_idx.i.i, align 8
  %.sroa.6.0..sroa_idx.i.i = getelementptr inbounds nuw i8, ptr %0, i64 28
  store i32 1, ptr %.sroa.6.0..sroa_idx.i.i, align 4
  %.sroa.7.0..sroa_idx.i.i = getelementptr inbounds nuw i8, ptr %0, i64 32
  store i32 0, ptr %.sroa.7.0..sroa_idx.i.i, align 8
  %.sroa.72.0..sroa_idx.i.i = getelementptr inbounds nuw i8, ptr %0, i64 36
  store i32 1, ptr %.sroa.72.0..sroa_idx.i.i, align 4
  %.sroa.8.0..sroa_idx.i.i = getelementptr inbounds nuw i8, ptr %0, i64 40
  tail call void @llvm.memset.p0.i64(ptr noundef nonnull align 8 dereferenceable(40) %.sroa.8.0..sroa_idx.i.i, i8 0, i64 40, i1 false)
  %.sroa.83.0..sroa_idx.i.i = getelementptr inbounds nuw i8, ptr %0, i64 80
  store i8 1, ptr %.sroa.83.0..sroa_idx.i.i, align 8
  %.sroa.9.0..sroa_idx.i.i = getelementptr inbounds nuw i8, ptr %0, i64 81
  tail call void @llvm.memset.p0.i64(ptr noundef nonnull align 1 dereferenceable(39) %.sroa.9.0..sroa_idx.i.i, i8 0, i64 39, i1 false)
  %.sroa.94.0..sroa_idx.i.i = getelementptr inbounds nuw i8, ptr %0, i64 120
  store i8 1, ptr %.sroa.94.0..sroa_idx.i.i, align 8
  %.sroa.10.0..sroa_idx.i.i = getelementptr inbounds nuw i8, ptr %0, i64 121
  tail call void @llvm.memset.p0.i64(ptr noundef nonnull align 1 dereferenceable(15) %.sroa.10.0..sroa_idx.i.i, i8 0, i64 15, i1 false)
  %9 = tail call i32 @git_config_from_file(ptr noundef nonnull @check_repo_format, ptr noundef %1, ptr noundef nonnull %0) #25
  %10 = load i32, ptr %0, align 8, !tbaa !29
  %11 = icmp eq i32 %10, -1
  br i1 %11, label %12, label %15

12:                                               ; preds = %2
  tail call void @string_list_clear(ptr noundef nonnull %3, i32 noundef 0) #25
  tail call void @string_list_clear(ptr noundef nonnull %4, i32 noundef 0) #25
  %13 = load ptr, ptr %5, align 8, !tbaa !36
  tail call void @free(ptr noundef %13) #25
  %14 = load ptr, ptr %7, align 8, !tbaa !37
  tail call void @free(ptr noundef %14) #25
  store i32 -1, ptr %0, align 8
  tail call void @llvm.memset.p0.i64(ptr noundef nonnull align 4 dereferenceable(20) %.sroa.5.0..sroa_idx.i.i, i8 0, i64 20, i1 false)
  store i32 -1, ptr %.sroa.51.0..sroa_idx.i.i, align 8
  store i32 1, ptr %.sroa.6.0..sroa_idx.i.i, align 4
  store i32 0, ptr %.sroa.7.0..sroa_idx.i.i, align 8
  store i32 1, ptr %.sroa.72.0..sroa_idx.i.i, align 4
  tail call void @llvm.memset.p0.i64(ptr noundef nonnull align 8 dereferenceable(40) %.sroa.8.0..sroa_idx.i.i, i8 0, i64 40, i1 false)
  store i8 1, ptr %.sroa.83.0..sroa_idx.i.i, align 8
  tail call void @llvm.memset.p0.i64(ptr noundef nonnull align 1 dereferenceable(39) %.sroa.9.0..sroa_idx.i.i, i8 0, i64 39, i1 false)
  store i8 1, ptr %.sroa.94.0..sroa_idx.i.i, align 8
  tail call void @llvm.memset.p0.i64(ptr noundef nonnull align 1 dereferenceable(15) %.sroa.10.0..sroa_idx.i.i, i8 0, i64 15, i1 false)
  br label %15

15:                                               ; preds = %12, %2
  ret i32 %10
}